target datalayout = "e-m:e-p270:32:32-p271:32:32-p272:64:64-i64:64-i128:128-f80:128-n8:16:32:64-S128"
target triple = "x86_64-pc-linux-gnu"

%struct.cloudManager = type { i32, i32, [4 x i32], i32, [4 x i32], i32, i32, i32, i32, i32, i32, i32, i32, i32, i32, ptr, ptr, ptr, ptr, ptr, ptr, ptr, [20 x ptr] }
%struct.Kit_Mux_t_ = type { i32 }
%struct.cloudNode = type { i32, i32, ptr, ptr }
%struct.Vec_Int_t_ = type { i32, i32, ptr }
%union.anon = type { %struct.Kit_Mux_t_ }

; Function Attrs: inlinehint nounwind uwtable
define internal void @Vec_IntGrow(ptr noundef %0, i32 noundef %1) #3 {
  %3 = alloca ptr, align 8
  %4 = alloca i32, align 4
  store ptr %0, ptr %3, align 8, !tbaa !24
  store i32 %1, ptr %4, align 4, !tbaa !8
  %5 = load ptr, ptr %3, align 8, !tbaa !24
  %6 = getelementptr inbounds nuw %struct.Vec_Int_t_, ptr %5, i32 0, i32 0
  %7 = load i32, ptr %6, align 8, !tbaa !37
  %8 = load i32, ptr %4, align 4, !tbaa !8
  %9 = icmp sge i32 %7, %8
  br i1 %9, label %10, label %11

10:                                               ; preds = %2
  br label %36

11:                                               ; preds = %2
  %12 = load ptr, ptr %3, align 8, !tbaa !24
  %13 = getelementptr inbounds nuw %struct.Vec_Int_t_, ptr %12, i32 0, i32 2
  %14 = load ptr, ptr %13, align 8, !tbaa !38
  %15 = icmp ne ptr %14, null
  br i1 %15, label %16, label %24

16:                                               ; preds = %11
  %17 = load ptr, ptr %3, align 8, !tbaa !24
  %18 = getelementptr inbounds nuw %struct.Vec_Int_t_, ptr %17, i32 0, i32 2
  %19 = load ptr, ptr %18, align 8, !tbaa !38
  %20 = load i32, ptr %4, align 4, !tbaa !8
  %21 = sext i32 %20 to i64
  %22 = mul i64 4, %21
  %23 = call ptr @realloc(ptr noundef %19, i64 noundef %22) #9
  br label %29

24:                                               ; preds = %11
  %25 = load i32, ptr %4, align 4, !tbaa !8
  %26 = sext i32 %25 to i64
  %27 = mul i64 4, %26
  %28 = call noalias ptr @malloc(i64 noundef %27) #10
  br label %29

29:                                               ; preds = %24, %16
  %30 = phi ptr [ %23, %16 ], [ %28, %24 ]
  %31 = load ptr, ptr %3, align 8, !tbaa !24
  %32 = getelementptr inbounds nuw %struct.Vec_Int_t_, ptr %31, i32 0, i32 2
  store ptr %30, ptr %32, align 8, !tbaa !38
  %33 = load i32, ptr %4, align 4, !tbaa !8
  %34 = load ptr, ptr %3, align 8, !tbaa !24
  %35 = getelementptr inbounds nuw %struct.Vec_Int_t_, ptr %34, i32 0, i32 0
  store i32 %33, ptr %35, align 8, !tbaa !37
  br label %36

36:                                               ; preds = %29, %10
  ret void
}

; Function Attrs: inlinehint nounwind uwtable
define internal i32 @Kit_Mux2Int(i32 %0) #3 {
  %2 = alloca %struct.Kit_Mux_t_, align 4
  %3 = alloca %union.anon, align 4
  %4 = getelementptr inbounds nuw %struct.Kit_Mux_t_, ptr %2, i32 0, i32 0
  store i32 %0, ptr %4, align 4
  call void @llvm.lifetime.start.p0(i64 4, ptr %3) #8
  call void @llvm.memcpy.p0.p0.i64(ptr align 4 %3, ptr align 4 %2, i64 4, i1 false), !tbaa.struct !39
  %5 = load i32, ptr %3, align 4, !tbaa !40
  call void @llvm.lifetime.end.p0(i64 4, ptr %3) #8
  ret i32 %5
}

; Function Attrs: inlinehint nounwind uwtable
define internal void @Vec_IntPush(ptr noundef %0, i32 noundef %1) #3 {
  %3 = alloca ptr, align 8
  %4 = alloca i32, align 4
  store ptr %0, ptr %3, align 8, !tbaa !24
  store i32 %1, ptr %4, align 4, !tbaa !8
  %5 = load ptr, ptr %3, align 8, !tbaa !24
  %6 = getelementptr inbounds nuw %struct.Vec_Int_t_, ptr %5, i32 0, i32 1
  %7 = load i32, ptr %6, align 4, !tbaa !35
  %8 = load ptr, ptr %3, align 8, !tbaa !24
  %9 = getelementptr inbounds nuw %struct.Vec_Int_t_, ptr %8, i32 0, i32 0
  %10 = load i32, ptr %9, align 8, !tbaa !37
  %11 = icmp eq i32 %7, %10
  br i1 %11, label %12, label %26

12:                                               ; preds = %2
  %13 = load ptr, ptr %3, align 8, !tbaa !24
  %14 = getelementptr inbounds nuw %struct.Vec_Int_t_, ptr %13, i32 0, i32 0
  %15 = load i32, ptr %14, align 8, !tbaa !37
  %16 = icmp slt i32 %15, 16
  br i1 %16, label %17, label %19

17:                                               ; preds = %12
  %18 = load ptr, ptr %3, align 8, !tbaa !24
  call void @Vec_IntGrow(ptr noundef %18, i32 noundef 16)
  br label %25

19:                                               ; preds = %12
  %20 = load ptr, ptr %3, align 8, !tbaa !24
  %21 = load ptr, ptr %3, align 8, !tbaa !24
  %22 = getelementptr inbounds nuw %struct.Vec_Int_t_, ptr %21, i32 0, i32 0
  %23 = load i32, ptr %22, align 8, !tbaa !37
  %24 = mul nsw i32 2, %23
  call void @Vec_IntGrow(ptr noundef %20, i32 noundef %24)
  br label %25

25:                                               ; preds = %19, %17
  br label %26

26:                                               ; preds = %25, %2
  %27 = load i32, ptr %4, align 4, !tbaa !8
  %28 = load ptr, ptr %3, align 8, !tbaa !24
  %29 = getelementptr inbounds nuw %struct.Vec_Int_t_, ptr %28, i32 0, i32 2
  %30 = load ptr, ptr %29, align 8, !tbaa !38
  %31 = load ptr, ptr %3, align 8, !tbaa !24
  %32 = getelementptr inbounds nuw %struct.Vec_Int_t_, ptr %31, i32 0, i32 1
  %33 = load i32, ptr %32, align 4, !tbaa !35
  %34 = add nsw i32 %33, 1
  store i32 %34, ptr %32, align 4, !tbaa !35
  %35 = sext i32 %33 to i64
  %36 = getelementptr inbounds i32, ptr %30, i64 %35
  store i32 %27, ptr %36, align 4, !tbaa !8
  ret void
}

; Function Attrs: inlinehint nounwind uwtable
define internal void @Vec_IntClear(ptr noundef %0) #3 {
  %2 = alloca ptr, align 8
  store ptr %0, ptr %2, align 8, !tbaa !24
  %3 = load ptr, ptr %2, align 8, !tbaa !24
  %4 = getelementptr inbounds nuw %struct.Vec_Int_t_, ptr %3, i32 0, i32 1
  store i32 0, ptr %4, align 4, !tbaa !35
  ret void
}

; Function Attrs: nounwind uwtable
define i32 @Kit_CreateCloud(ptr noundef %0, ptr noundef %1, ptr noundef %2) #0 {
  %4 = alloca i32, align 4
  %5 = alloca ptr, align 8
  %6 = alloca ptr, align 8
  %7 = alloca ptr, align 8
  %8 = alloca %struct.Kit_Mux_t_, align 4
  %9 = alloca i32, align 4
  %10 = alloca i32, align 4
  %11 = alloca i32, align 4
  store ptr %0, ptr %5, align 8, !tbaa !3
  store ptr %1, ptr %6, align 8, !tbaa !16
  store ptr %2, ptr %7, align 8, !tbaa !24
  call void @llvm.lifetime.start.p0(i64 4, ptr %8) #8
  call void @llvm.lifetime.start.p0(i64 4, ptr %9) #8
  call void @llvm.lifetime.start.p0(i64 4, ptr %10) #8
  %12 = load ptr, ptr %5, align 8, !tbaa !3
  %13 = load ptr, ptr %6, align 8, !tbaa !16
  %14 = call i32 @Cloud_DagCollect(ptr noundef %12, ptr noundef %13)
  store i32 %14, ptr %9, align 4, !tbaa !8
  %15 = load i32, ptr %9, align 4, !tbaa !8
  %16 = icmp sge i32 %15, 4096
  br i1 %16, label %17, label %18

17:                                               ; preds = %3
  store i32 0, ptr %4, align 4
  store i32 1, ptr %11, align 4
  br label %151

18:                                               ; preds = %3
  %19 = load ptr, ptr %7, align 8, !tbaa !24
  call void @Vec_IntClear(ptr noundef %19)
  %20 = load ptr, ptr %7, align 8, !tbaa !24
  call void @Vec_IntPush(ptr noundef %20, i32 noundef 0)
  %21 = load ptr, ptr %5, align 8, !tbaa !3
  %22 = getelementptr inbounds nuw %struct.cloudManager, ptr %21, i32 0, i32 21
  %23 = load ptr, ptr %22, align 8, !tbaa !26
  %24 = getelementptr inbounds ptr, ptr %23, i64 0
  %25 = load ptr, ptr %24, align 8, !tbaa !16
  %26 = getelementptr inbounds nuw %struct.cloudNode, ptr %25, i32 0, i32 0
  store i32 0, ptr %26, align 8, !tbaa !27
  store i32 1, ptr %10, align 4, !tbaa !8
  br label %27

27:                                               ; preds = %127, %18
  %28 = load i32, ptr %10, align 4, !tbaa !8
  %29 = load i32, ptr %9, align 4, !tbaa !8
  %30 = icmp slt i32 %28, %29
  br i1 %30, label %31, label %130

31:                                               ; preds = %27
  %32 = load i32, ptr %10, align 4, !tbaa !8
  %33 = load ptr, ptr %5, align 8, !tbaa !3
  %34 = getelementptr inbounds nuw %struct.cloudManager, ptr %33, i32 0, i32 21
  %35 = load ptr, ptr %34, align 8, !tbaa !26
  %36 = load i32, ptr %10, align 4, !tbaa !8
  %37 = sext i32 %36 to i64
  %38 = getelementptr inbounds ptr, ptr %35, i64 %37
  %39 = load ptr, ptr %38, align 8, !tbaa !16
  %40 = getelementptr inbounds nuw %struct.cloudNode, ptr %39, i32 0, i32 0
  store i32 %32, ptr %40, align 8, !tbaa !27
  %41 = load ptr, ptr %5, align 8, !tbaa !3
  %42 = getelementptr inbounds nuw %struct.cloudManager, ptr %41, i32 0, i32 21
  %43 = load ptr, ptr %42, align 8, !tbaa !26
  %44 = load i32, ptr %10, align 4, !tbaa !8
  %45 = sext i32 %44 to i64
  %46 = getelementptr inbounds ptr, ptr %43, i64 %45
  %47 = load ptr, ptr %46, align 8, !tbaa !16
  %48 = getelementptr inbounds nuw %struct.cloudNode, ptr %47, i32 0, i32 1
  %49 = load i32, ptr %48, align 4, !tbaa !29
  %50 = load i32, ptr %8, align 4
  %51 = and i32 %49, 63
  %52 = and i32 %50, -64
  %53 = or i32 %52, %51
  store i32 %53, ptr %8, align 4
  %54 = load ptr, ptr %5, align 8, !tbaa !3
  %55 = getelementptr inbounds nuw %struct.cloudManager, ptr %54, i32 0, i32 21
  %56 = load ptr, ptr %55, align 8, !tbaa !26
  %57 = load i32, ptr %10, align 4, !tbaa !8
  %58 = sext i32 %57 to i64
  %59 = getelementptr inbounds ptr, ptr %56, i64 %58
  %60 = load ptr, ptr %59, align 8, !tbaa !16
  %61 = getelementptr inbounds nuw %struct.cloudNode, ptr %60, i32 0, i32 3
  %62 = load ptr, ptr %61, align 8, !tbaa !30
  %63 = getelementptr inbounds nuw %struct.cloudNode, ptr %62, i32 0, i32 0
  %64 = load i32, ptr %63, align 8, !tbaa !27
  %65 = load i32, ptr %8, align 4
  %66 = and i32 %64, 4095
  %67 = shl i32 %66, 6
  %68 = and i32 %65, -262081
  %69 = or i32 %68, %67
  store i32 %69, ptr %8, align 4
  %70 = load ptr, ptr %5, align 8, !tbaa !3
  %71 = getelementptr inbounds nuw %struct.cloudManager, ptr %70, i32 0, i32 21
  %72 = load ptr, ptr %71, align 8, !tbaa !26
  %73 = load i32, ptr %10, align 4, !tbaa !8
  %74 = sext i32 %73 to i64
  %75 = getelementptr inbounds ptr, ptr %72, i64 %74
  %76 = load ptr, ptr %75, align 8, !tbaa !16
  %77 = getelementptr inbounds nuw %struct.cloudNode, ptr %76, i32 0, i32 2
  %78 = load ptr, ptr %77, align 8, !tbaa !31
  %79 = ptrtoint ptr %78 to i64
  %80 = and i64 %79, -2
  %81 = inttoptr i64 %80 to ptr
  %82 = getelementptr inbounds nuw %struct.cloudNode, ptr %81, i32 0, i32 0
  %83 = load i32, ptr %82, align 8, !tbaa !27
  %84 = load i32, ptr %8, align 4
  %85 = and i32 %83, 4095
  %86 = shl i32 %85, 18
  %87 = and i32 %84, -1073479681
  %88 = or i32 %87, %86
  store i32 %88, ptr %8, align 4
  %89 = load ptr, ptr %5, align 8, !tbaa !3
  %90 = getelementptr inbounds nuw %struct.cloudManager, ptr %89, i32 0, i32 21
  %91 = load ptr, ptr %90, align 8, !tbaa !26
  %92 = load i32, ptr %10, align 4, !tbaa !8
  %93 = sext i32 %92 to i64
  %94 = getelementptr inbounds ptr, ptr %91, i64 %93
  %95 = load ptr, ptr %94, align 8, !tbaa !16
  %96 = getelementptr inbounds nuw %struct.cloudNode, ptr %95, i32 0, i32 2
  %97 = load ptr, ptr %96, align 8, !tbaa !31
  %98 = ptrtoint ptr %97 to i64
  %99 = and i64 %98, 1
  %100 = trunc i64 %99 to i32
  %101 = load i32, ptr %8, align 4
  %102 = and i32 %100, 1
  %103 = shl i32 %102, 30
  %104 = and i32 %101, -1073741825
  %105 = or i32 %104, %103
  store i32 %105, ptr %8, align 4
  %106 = load i32, ptr %10, align 4, !tbaa !8
  %107 = load i32, ptr %9, align 4, !tbaa !8
  %108 = sub nsw i32 %107, 1
  %109 = icmp eq i32 %106, %108
  br i1 %109, label %110, label %115

110:                                              ; preds = %31
  %111 = load ptr, ptr %6, align 8, !tbaa !16
  %112 = ptrtoint ptr %111 to i64
  %113 = and i64 %112, 1
  %114 = trunc i64 %113 to i32
  br label %116

115:                                              ; preds = %31
  br label %116

116:                                              ; preds = %115, %110
  %117 = phi i32 [ %114, %110 ], [ 0, %115 ]
  %118 = load i32, ptr %8, align 4
  %119 = and i32 %117, 1
  %120 = shl i32 %119, 31
  %121 = and i32 %118, 2147483647
  %122 = or i32 %121, %120
  store i32 %122, ptr %8, align 4
  %123 = load ptr, ptr %7, align 8, !tbaa !24
  %124 = getelementptr inbounds nuw %struct.Kit_Mux_t_, ptr %8, i32 0, i32 0
  %125 = load i32, ptr %124, align 4
  %126 = call i32 @Kit_Mux2Int(i32 %125)
  call void @Vec_IntPush(ptr noundef %123, i32 noundef %126)
  br label %127

127:                                              ; preds = %116
  %128 = load i32, ptr %10, align 4, !tbaa !8
  %129 = add nsw i32 %128, 1
  store i32 %129, ptr %10, align 4, !tbaa !8
  br label %27, !llvm.loop !32

130:                                              ; preds = %27
  store i32 0, ptr %10, align 4, !tbaa !8
  br label %131

131:                                              ; preds = %147, %130
  %132 = load i32, ptr %10, align 4, !tbaa !8
  %133 = load i32, ptr %9, align 4, !tbaa !8
  %134 = icmp slt i32 %132, %133
  br i1 %134, label %135, label %150

135:                                              ; preds = %131
  %136 = load ptr, ptr %5, align 8, !tbaa !3
  %137 = getelementptr inbounds nuw %struct.cloudManager, ptr %136, i32 0, i32 8
  %138 = load i32, ptr %137, align 8, !tbaa !33
  %139 = load ptr, ptr %5, align 8, !tbaa !3
  %140 = getelementptr inbounds nuw %struct.cloudManager, ptr %139, i32 0, i32 21
  %141 = load ptr, ptr %140, align 8, !tbaa !26
  %142 = load i32, ptr %10, align 4, !tbaa !8
  %143 = sext i32 %142 to i64
  %144 = getelementptr inbounds ptr, ptr %141, i64 %143
  %145 = load ptr, ptr %144, align 8, !tbaa !16
  %146 = getelementptr inbounds nuw %struct.cloudNode, ptr %145, i32 0, i32 0
  store i32 %138, ptr %146, align 8, !tbaa !27
  br label %147

147:                                              ; preds = %135
  %148 = load i32, ptr %10, align 4, !tbaa !8
  %149 = add nsw i32 %148, 1
  store i32 %149, ptr %10, align 4, !tbaa !8
  br label %131, !llvm.loop !34

150:                                              ; preds = %131
  store i32 1, ptr %4, align 4
  store i32 1, ptr %11, align 4
  br label %151

151:                                              ; preds = %150, %17
  call void @llvm.lifetime.end.p0(i64 4, ptr %10) #8
  call void @llvm.lifetime.end.p0(i64 4, ptr %9) #8
  call void @llvm.lifetime.end.p0(i64 4, ptr %8) #8
  %152 = load i32, ptr %4, align 4
  ret i32 %152
}