; Function Attrs: nounwind uwtable
define range(i32 0, 2) i32 @Kit_CreateCloud(ptr noundef %0, ptr noundef %1, ptr noundef captures(none) %2) local_unnamed_addr #0 {
  %4 = tail call i32 @Cloud_DagCollect(ptr noundef %0, ptr noundef %1) #8
  %5 = icmp sgt i32 %4, 4095
  br i1 %5, label %.loopexit, label %6

6:                                                ; preds = %3
  %7 = getelementptr inbounds nuw i8, ptr %2, i64 4
  store i32 0, ptr %7, align 4, !tbaa !20
  %8 = load i32, ptr %2, align 8, !tbaa !23
  %9 = icmp eq i32 %8, 0
  %10 = getelementptr inbounds nuw i8, ptr %2, i64 8
  %11 = load ptr, ptr %10, align 8, !tbaa !24
  br i1 %9, label %12, label %Vec_IntPush.exit

12:                                               ; preds = %6
  %.not9.i.i = icmp eq ptr %11, null
  br i1 %.not9.i.i, label %15, label %13

13:                                               ; preds = %12
  %14 = tail call dereferenceable_or_null(64) ptr @realloc(ptr noundef nonnull %11, i64 noundef 64) #9
  %.pre.pre = load i32, ptr %7, align 4, !tbaa !20
  br label %Vec_IntGrow.exit.i

15:                                               ; preds = %12
  %16 = tail call noalias dereferenceable_or_null(64) ptr @malloc(i64 noundef 64) #10
  br label %Vec_IntGrow.exit.i

Vec_IntGrow.exit.i:                               ; preds = %15, %13
  %.pre = phi i32 [ %.pre.pre, %13 ], [ 0, %15 ]
  %17 = phi ptr [ %14, %13 ], [ %16, %15 ]
  store ptr %17, ptr %10, align 8, !tbaa !24
  store i32 16, ptr %2, align 8, !tbaa !23
  br label %Vec_IntPush.exit

Vec_IntPush.exit:                                 ; preds = %6, %Vec_IntGrow.exit.i
  %18 = phi i32 [ %.pre, %Vec_IntGrow.exit.i ], [ 0, %6 ]
  %19 = phi ptr [ %17, %Vec_IntGrow.exit.i ], [ %11, %6 ]
  %20 = add nsw i32 %18, 1
  store i32 %20, ptr %7, align 4, !tbaa !20
  %21 = sext i32 %18 to i64
  %22 = getelementptr inbounds i32, ptr %19, i64 %21
  store i32 0, ptr %22, align 4, !tbaa !14
  %23 = getelementptr inbounds nuw i8, ptr %0, i64 136
  %24 = load ptr, ptr %23, align 8, !tbaa !25
  %25 = load ptr, ptr %24, align 8, !tbaa !13
  store i32 0, ptr %25, align 8, !tbaa !26
  %26 = icmp sgt i32 %4, 1
  br i1 %26, label %.lr.ph, label %.preheader

.lr.ph:                                           ; preds = %Vec_IntPush.exit
  %27 = add nsw i32 %4, -1
  %28 = ptrtoint ptr %1 to i64
  %29 = trunc i64 %28 to i32
  %30 = shl i32 %29, 31
  %.phi.trans.insert.i38 = getelementptr inbounds nuw i8, ptr %2, i64 8
  %31 = zext nneg i32 %27 to i64
  %wide.trip.count = zext nneg i32 %4 to i64
  br label %36

.preheader:                                       ; preds = %Vec_IntPush.exit43, %Vec_IntPush.exit
  %32 = icmp sgt i32 %4, 0
  br i1 %32, label %.lr.ph47, label %.loopexit

.lr.ph47:                                         ; preds = %.preheader
  %33 = getelementptr inbounds nuw i8, ptr %0, i64 56
  %34 = load i32, ptr %33, align 8, !tbaa !28
  %35 = load ptr, ptr %23, align 8, !tbaa !25
  %wide.trip.count52 = zext nneg i32 %4 to i64
  br label %80

36:                                               ; preds = %.lr.ph, %Vec_IntPush.exit43
  %37 = phi ptr [ %19, %.lr.ph ], [ %.pre.i3955, %Vec_IntPush.exit43 ]
  %indvars.iv = phi i64 [ 1, %.lr.ph ], [ %indvars.iv.next, %Vec_IntPush.exit43 ]
  %.sroa.0.044 = phi i32 [ 0, %.lr.ph ], [ %65, %Vec_IntPush.exit43 ]
  %38 = load ptr, ptr %23, align 8, !tbaa !25
  %39 = getelementptr inbounds nuw ptr, ptr %38, i64 %indvars.iv
  %40 = load ptr, ptr %39, align 8, !tbaa !13
  %41 = trunc nuw nsw i64 %indvars.iv to i32
  store i32 %41, ptr %40, align 8, !tbaa !26
  %42 = getelementptr inbounds nuw i8, ptr %40, i64 4
  %43 = load i32, ptr %42, align 4, !tbaa !29
  %44 = and i32 %43, 63
  %45 = or disjoint i32 %44, %.sroa.0.044
  %46 = getelementptr inbounds nuw i8, ptr %40, i64 16
  %47 = load ptr, ptr %46, align 8, !tbaa !30
  %48 = load i32, ptr %47, align 8, !tbaa !26
  %49 = shl i32 %48, 6
  %50 = and i32 %49, 262080
  %51 = or disjoint i32 %45, %50
  %52 = getelementptr inbounds nuw i8, ptr %40, i64 8
  %53 = load ptr, ptr %52, align 8, !tbaa !31
  %54 = ptrtoint ptr %53 to i64
  %55 = and i64 %54, -2
  %56 = inttoptr i64 %55 to ptr
  %57 = load i32, ptr %56, align 8, !tbaa !26
  %58 = shl i32 %57, 18
  %59 = and i32 %58, 1073479680
  %60 = or disjoint i32 %51, %59
  %61 = trunc i64 %54 to i32
  %62 = shl i32 %61, 30
  %63 = or i32 %60, %62
  %64 = icmp eq i64 %indvars.iv, %31
  %65 = select i1 %64, i32 %30, i32 0
  %66 = and i32 %63, 2147483647
  %67 = or disjoint i32 %66, %65
  %68 = load i32, ptr %7, align 4, !tbaa !20
  %69 = load i32, ptr %2, align 8, !tbaa !23
  %70 = icmp eq i32 %68, %69
  br i1 %70, label %Vec_IntPush.exit43.sink.split, label %Vec_IntPush.exit43

Vec_IntPush.exit43.sink.split:                    ; preds = %36
  %71 = icmp slt i32 %68, 16
  %72 = shl nuw nsw i32 %68, 1
  %73 = zext nneg i32 %72 to i64
  %74 = shl nuw nsw i64 %73, 2
  %.sink58 = select i1 %71, i64 64, i64 %74
  %.sink = select i1 %71, i32 16, i32 %72
  %75 = tail call ptr @realloc(ptr noundef nonnull %37, i64 noundef %.sink58) #9
  store ptr %75, ptr %.phi.trans.insert.i38, align 8, !tbaa !24
  store i32 %.sink, ptr %2, align 8, !tbaa !23
  br label %Vec_IntPush.exit43

Vec_IntPush.exit43:                               ; preds = %Vec_IntPush.exit43.sink.split, %36
  %.pre.i3955 = phi ptr [ %37, %36 ], [ %75, %Vec_IntPush.exit43.sink.split ]
  %76 = load i32, ptr %7, align 4, !tbaa !20
  %77 = add nsw i32 %76, 1
  store i32 %77, ptr %7, align 4, !tbaa !20
  %78 = sext i32 %76 to i64
  %79 = getelementptr inbounds i32, ptr %.pre.i3955, i64 %78
  store i32 %67, ptr %79, align 4, !tbaa !14
  %indvars.iv.next = add nuw nsw i64 %indvars.iv, 1
  %exitcond.not = icmp eq i64 %indvars.iv.next, %wide.trip.count
  br i1 %exitcond.not, label %.preheader, label %36, !llvm.loop !32

80:                                               ; preds = %.lr.ph47, %80
  %indvars.iv49 = phi i64 [ 0, %.lr.ph47 ], [ %indvars.iv.next50, %80 ]
  %81 = getelementptr inbounds nuw ptr, ptr %35, i64 %indvars.iv49
  %82 = load ptr, ptr %81, align 8, !tbaa !13
  store i32 %34, ptr %82, align 8, !tbaa !26
  %indvars.iv.next50 = add nuw nsw i64 %indvars.iv49, 1
  %exitcond53.not = icmp eq i64 %indvars.iv.next50, %wide.trip.count52
  br i1 %exitcond53.not, label %.loopexit, label %80, !llvm.loop !33

.loopexit:                                        ; preds = %80, %.preheader, %3
  %.035 = phi i32 [ 0, %3 ], [ 1, %.preheader ], [ 1, %80 ]
  ret i32 %.035
}